; Listing generated by Microsoft (R) Optimizing Compiler Version 19.39.33521.0 

	TITLE	D:\BSTU\2 семестр\КПО\Лабораторная 1 и 3\define_year\define_year\Debug\leap_year.obj
	.686P
	.XMM
	include listing.inc
	.model	flat

INCLUDELIB MSVCRTD
INCLUDELIB OLDNAMES

msvcjmc	SEGMENT
__FE09AF47_concurrencysal@h DB 01H
__C073CA79_sal@h DB 01H
__D6AFE870_vadefs@h DB 01H
__D63E96CF_vcruntime@h DB 01H
__32E3D3D2_xkeycheck@h DB 01H
__CFD6EDFA_yvals_core@h DB 01H
__10D4A829_limits@h DB 01H
__9CD02892_climits DB 01H
__1B0272D9_corecrt@h DB 01H
__A3D3E4E8_vcruntime_new@h DB 01H
__8D1A214D_vcruntime_new_debug@h DB 01H
__935DC21B_crtdbg@h DB 01H
__497BC13E_crtdefs@h DB 01H
__DDE8D0E0_use_ansi@h DB 01H
__AE7FBCDF_yvals@h DB 01H
__BB16330F_corecrt_math@h DB 01H
__3BF2A406_math@h DB 01H
__45DED006_corecrt_malloc@h DB 01H
__13F5961F_stddef@h DB 01H
__FD6DBD68_corecrt_search@h DB 01H
__E2E33A61_corecrt_wstdlib@h DB 01H
__6E5ACABA_stdlib@h DB 01H
__183F0A60_cstdlib DB 01H
__26E6E2A9_xtr1common DB 01H
__F5A7E1DF_intrin0@inl@h DB 01H
__50567835_intrin0@h DB 01H
__A2C9C4CE_cmath DB 01H
__44420885_corecrt_stdio_config@h DB 01H
__AB601D8D_corecrt_wstdio@h DB 01H
__C1EC35D3_stdio@h DB 01H
__1C5946C5_cstdio DB 01H
__61CC25A1_errno@h DB 01H
__3EADF068_vcruntime_string@h DB 01H
__E4C945B4_corecrt_memcpy_s@h DB 01H
__8EAFF484_corecrt_memory@h DB 01H
__6490AEC5_corecrt_wstring@h DB 01H
__E8295E1E_string@h DB 01H
__54ADA280_cstring DB 01H
__EF1F6BBA_corecrt_wconio@h DB 01H
__74484FB3_corecrt_wctype@h DB 01H
__3D1D430C_corecrt_wdirect@h DB 01H
__8ECB7138_corecrt_share@h DB 01H
__DB7FEBA6_corecrt_wio@h DB 01H
__9A9F0068_corecrt_wprocess@h DB 01H
__369A9BC3_corecrt_wtime@h DB 01H
__CE789B9D_types@h DB 01H
__9901C817_stat@h DB 01H
__3FCAD62E_wchar@h DB 01H
__86D29096_cwchar DB 01H
__C51215A0_iosfwd DB 01H
__BDF4D0CD_cstddef DB 01H
__E4CFD974_initializer_list DB 01H
__AEA28616_stdint@h DB 01H
__A561EB1D_cstdint DB 01H
__7C4A1519_type_traits DB 01H
__2F328FEB_utility DB 01H
__91F58E7E___msvc_iter_core@hpp DB 01H
__C27AFEEB_xutility DB 01H
__D3D649AB_iterator DB 01H
__F7972D0B_share@h DB 01H
__F338F6F9___msvc_system_error_abi@hpp DB 01H
__8178323E_cerrno DB 01H
__FA77ED4C_malloc@h DB 01H
__89766DA4_corecrt_terminate@h DB 01H
__EEF52EF9_eh@h DB 01H
__85F4241F_vcruntime_exception@h DB 01H
__8124AFA8_exception DB 01H
__BE6CFB00___msvc_sanitizer_annotate_container@hpp DB 01H
__B9985323_float@h DB 01H
__6F1D8D42_cfloat DB 01H
__09FBC026_limits DB 01H
__5003AD96_new DB 01H
__8B28237E_xatomic@h DB 01H
__45A7EC28_xmemory DB 01H
__31746AB4_xstring DB 01H
__086A95F5_stdexcept DB 01H
__8C4E33AA_xcall_once@h DB 01H
__06EAA9D0_xerrc@h DB 01H
__0A9237D2_time@h DB 01H
__647A58C6_ctime DB 01H
__74BE1DAA_xtimec@h DB 01H
__BCA6E753_xthreads@h DB 01H
__62CE9CE4_atomic DB 01H
__3313218A_system_error DB 01H
__851B68E1_vcruntime_typeinfo@h DB 01H
__B2A50DF2_typeinfo DB 01H
__B555CCA8_memory DB 01H
__99109BA7_xfacet DB 01H
__F99E20B2___msvc_xlocinfo_types@hpp DB 01H
__1EC467ED_ctype@h DB 01H
__1392A162_cctype DB 01H
__791C33B7_locale@h DB 01H
__8B93D6B1_clocale DB 01H
__AD2CEE3A_xlocinfo DB 01H
__EE4A1E85_xlocale DB 01H
__94C99929_xiosbase DB 01H
__0ACA2D49_streambuf DB 01H
__70CD7892_xlocnum DB 01H
__A8CE9780_ios DB 01H
__FD5AC441_ostream DB 01H
__9E8AF17B_istream DB 01H
__A00384F4_iostream DB 01H
__CADDE223_stdafx@h DB 01H
__2ACDC165_leap_year@cpp DB 01H
msvcjmc	ENDS
PUBLIC	?__empty_global_delete@@YAXPAX@Z		; __empty_global_delete
PUBLIC	?__empty_global_delete@@YAXPAXI@Z		; __empty_global_delete
PUBLIC	?isYearLeap@@YAHH@Z				; isYearLeap
PUBLIC	__JustMyCode_Default
EXTRN	@__CheckForDebuggerJustMyCode@4:PROC
EXTRN	__RTC_CheckEsp:PROC
EXTRN	__RTC_InitBase:PROC
EXTRN	__RTC_Shutdown:PROC
;	COMDAT rtc$TMZ
rtc$TMZ	SEGMENT
__RTC_Shutdown.rtc$TMZ DD FLAT:__RTC_Shutdown
rtc$TMZ	ENDS
;	COMDAT rtc$IMZ
rtc$IMZ	SEGMENT
__RTC_InitBase.rtc$IMZ DD FLAT:__RTC_InitBase
rtc$IMZ	ENDS
; Function compile flags: /Odt
;	COMDAT __JustMyCode_Default
_TEXT	SEGMENT
__JustMyCode_Default PROC				; COMDAT
  00000	55		 push	 ebp
  00001	8b ec		 mov	 ebp, esp
  00003	5d		 pop	 ebp
  00004	c3		 ret	 0
__JustMyCode_Default ENDP
_TEXT	ENDS
; Function compile flags: /Odtp /RTCsu /ZI
; File D:\BSTU\2 семестр\КПО\Лабораторная 1 и 3\define_year\define_year\leap_year.cpp
;	COMDAT ?isYearLeap@@YAHH@Z
_TEXT	SEGMENT
tv70 = -196						; size = 4
_year$ = 8						; size = 4
?isYearLeap@@YAHH@Z PROC				; isYearLeap, COMDAT

; 3    : int isYearLeap(int year) {

  00000	55		 push	 ebp
  00001	8b ec		 mov	 ebp, esp
  00003	81 ec c4 00 00
	00		 sub	 esp, 196		; 000000c4H
  00009	53		 push	 ebx
  0000a	56		 push	 esi
  0000b	57		 push	 edi
  0000c	8d 7d fc	 lea	 edi, DWORD PTR [ebp-4]
  0000f	b9 01 00 00 00	 mov	 ecx, 1
  00014	b8 cc cc cc cc	 mov	 eax, -858993460		; ccccccccH
  00019	f3 ab		 rep stosd
  0001b	b9 00 00 00 00	 mov	 ecx, OFFSET __2ACDC165_leap_year@cpp
  00020	e8 00 00 00 00	 call	 @__CheckForDebuggerJustMyCode@4

; 4    : 
; 5    :     return (year % 4 == 0 && year % 100 != 0 || year % 400 == 0);

  00025	8b 45 08	 mov	 eax, DWORD PTR _year$[ebp]
  00028	25 03 00 00 80	 and	 eax, -2147483645	; 80000003H
  0002d	79 05		 jns	 SHORT $LN6@isYearLeap
  0002f	48		 dec	 eax
  00030	83 c8 fc	 or	 eax, -4			; fffffffcH
  00033	40		 inc	 eax
$LN6@isYearLeap:
  00034	85 c0		 test	 eax, eax
  00036	75 0f		 jne	 SHORT $LN3@isYearLeap
  00038	8b 45 08	 mov	 eax, DWORD PTR _year$[ebp]
  0003b	99		 cdq
  0003c	b9 64 00 00 00	 mov	 ecx, 100		; 00000064H
  00041	f7 f9		 idiv	 ecx
  00043	85 d2		 test	 edx, edx
  00045	75 1b		 jne	 SHORT $LN4@isYearLeap
$LN3@isYearLeap:
  00047	8b 45 08	 mov	 eax, DWORD PTR _year$[ebp]
  0004a	99		 cdq
  0004b	b9 90 01 00 00	 mov	 ecx, 400		; 00000190H
  00050	f7 f9		 idiv	 ecx
  00052	85 d2		 test	 edx, edx
  00054	74 0c		 je	 SHORT $LN4@isYearLeap
  00056	c7 85 3c ff ff
	ff 00 00 00 00	 mov	 DWORD PTR tv70[ebp], 0
  00060	eb 0a		 jmp	 SHORT $LN5@isYearLeap
$LN4@isYearLeap:
  00062	c7 85 3c ff ff
	ff 01 00 00 00	 mov	 DWORD PTR tv70[ebp], 1
$LN5@isYearLeap:
  0006c	8b 85 3c ff ff
	ff		 mov	 eax, DWORD PTR tv70[ebp]

; 6    : }

  00072	5f		 pop	 edi
  00073	5e		 pop	 esi
  00074	5b		 pop	 ebx
  00075	81 c4 c4 00 00
	00		 add	 esp, 196		; 000000c4H
  0007b	3b ec		 cmp	 ebp, esp
  0007d	e8 00 00 00 00	 call	 __RTC_CheckEsp
  00082	8b e5		 mov	 esp, ebp
  00084	5d		 pop	 ebp
  00085	c3		 ret	 0
?isYearLeap@@YAHH@Z ENDP				; isYearLeap
_TEXT	ENDS
; Function compile flags: /Odtp /RTCsu /ZI
; File D:\BSTU\2 семестр\КПО\Лабораторная 1 и 3\define_year\define_year\leap_year.cpp
;	COMDAT ?__empty_global_delete@@YAXPAXI@Z
_TEXT	SEGMENT
___formal$ = 8						; size = 4
___formal$ = 12						; size = 4
?__empty_global_delete@@YAXPAXI@Z PROC			; __empty_global_delete, COMDAT

  00000	55		 push	 ebp
  00001	8b ec		 mov	 ebp, esp
  00003	81 ec c0 00 00
	00		 sub	 esp, 192		; 000000c0H
  00009	53		 push	 ebx
  0000a	56		 push	 esi
  0000b	57		 push	 edi
  0000c	8b fd		 mov	 edi, ebp
  0000e	33 c9		 xor	 ecx, ecx
  00010	b8 cc cc cc cc	 mov	 eax, -858993460		; ccccccccH
  00015	f3 ab		 rep stosd
  00017	b9 00 00 00 00	 mov	 ecx, OFFSET __2ACDC165_leap_year@cpp
  0001c	e8 00 00 00 00	 call	 @__CheckForDebuggerJustMyCode@4
  00021	5f		 pop	 edi
  00022	5e		 pop	 esi
  00023	5b		 pop	 ebx
  00024	81 c4 c0 00 00
	00		 add	 esp, 192		; 000000c0H
  0002a	3b ec		 cmp	 ebp, esp
  0002c	e8 00 00 00 00	 call	 __RTC_CheckEsp
  00031	8b e5		 mov	 esp, ebp
  00033	5d		 pop	 ebp
  00034	c3		 ret	 0
?__empty_global_delete@@YAXPAXI@Z ENDP			; __empty_global_delete
_TEXT	ENDS
; Function compile flags: /Odtp /RTCsu /ZI
; File D:\BSTU\2 семестр\КПО\Лабораторная 1 и 3\define_year\define_year\leap_year.cpp
;	COMDAT ?__empty_global_delete@@YAXPAX@Z
_TEXT	SEGMENT
___formal$ = 8						; size = 4
?__empty_global_delete@@YAXPAX@Z PROC			; __empty_global_delete, COMDAT

  00000	55		 push	 ebp
  00001	8b ec		 mov	 ebp, esp
  00003	81 ec c0 00 00
	00		 sub	 esp, 192		; 000000c0H
  00009	53		 push	 ebx
  0000a	56		 push	 esi
  0000b	57		 push	 edi
  0000c	8b fd		 mov	 edi, ebp
  0000e	33 c9		 xor	 ecx, ecx
  00010	b8 cc cc cc cc	 mov	 eax, -858993460		; ccccccccH
  00015	f3 ab		 rep stosd
  00017	b9 00 00 00 00	 mov	 ecx, OFFSET __2ACDC165_leap_year@cpp
  0001c	e8 00 00 00 00	 call	 @__CheckForDebuggerJustMyCode@4
  00021	5f		 pop	 edi
  00022	5e		 pop	 esi
  00023	5b		 pop	 ebx
  00024	81 c4 c0 00 00
	00		 add	 esp, 192		; 000000c0H
  0002a	3b ec		 cmp	 ebp, esp
  0002c	e8 00 00 00 00	 call	 __RTC_CheckEsp
  00031	8b e5		 mov	 esp, ebp
  00033	5d		 pop	 ebp
  00034	c3		 ret	 0
?__empty_global_delete@@YAXPAX@Z ENDP			; __empty_global_delete
_TEXT	ENDS
END
